(dp0
S'kunfav'
p1
(lp2
F-0.75
aF0.13953903040542648
acnumpy.core.multiarray
scalar
p3
(cnumpy
dtype
p4
(S'f8'
p5
I0
I1
tp6
Rp7
(I3
S'<'
p8
NNNI-1
I-1
I0
tp9
bS'\xee\x8e\xd7:h_\x9d?'
p10
tp11
Rp12
asS'sea'
p13
(lp14
F-0.75
aF0.4787545509877954
ag3
(g7
S'\xf8\x1fI\xc7\x14\x83\xb6?'
p15
tp16
Rp17
asS'val'
p18
(lp19
F-0.75
aF0.3105162577971252
ag3
(g7
S'\xad\x91\\\x86l\xe8\x94?'
p20
tp21
Rp22
asS'gk0'
p23
(lp24
F-0.75
aF-0.2588408658594058
ag3
(g7
S'kI\xb7\x85\x7f_\x80?'
p25
tp26
Rp27
asS'chi2'
p28
(lp29
F-0.75
aF730.0400000000001
aF391.0
asS'unfav'
p30
(lp31
F-0.75
aF0.18835671738827142
ag3
(g7
S'+r+\xf8^Vs?'
p32
tp33
Rp34
asS'fav'
p35
(lp36
F-0.75
aF0.19408204379789368
ag3
(g7
S'R\xc0U\xa8\xc31o?'
p37
tp38
Rp39
asS'kfav'
p40
(lp41
F-0.75
aF0.2018048226925685
ag3
(g7
S'_\\\x8cj\x0c\xf8\x87?'
p42
tp43
Rp44
as.