(dp0
S'kunfav'
p1
(lp2
F2.75
aF0.12105903831401403
acnumpy.core.multiarray
scalar
p3
(cnumpy
dtype
p4
(S'f8'
p5
I0
I1
tp6
Rp7
(I3
S'<'
p8
NNNI-1
I-1
I0
tp9
bS'\xda\x810\x82\xd6\xf1\xa6?'
p10
tp11
Rp12
asS'sea'
p13
(lp14
F2.75
aF0.4041876069540925
ag3
(g7
S'\x9b\x04\xf4Yy}\xb2?'
p15
tp16
Rp17
asS'val'
p18
(lp19
F2.75
aF0.3616691681850067
ag3
(g7
S'T\x96x\x06\x04\xd8\x95?'
p20
tp21
Rp22
asS'gk0'
p23
(lp24
F2.75
aF-0.27200358735921254
ag3
(g7
S'd\xfb\x02\xd54\xc1\x81?'
p25
tp26
Rp27
asS'chi2'
p28
(lp29
F2.75
aF289.39000000000004
aF314.0
asS'unfav'
p30
(lp31
F2.75
aF0.15211921305382825
ag3
(g7
S'\xb9\xac"\xe0F\x16s?'
p32
tp33
Rp34
asS'fav'
p35
(lp36
F2.75
aF0.16329402035112883
ag3
(g7
S'#XD8\xd0\xf6l?'
p37
tp38
Rp39
asS'kfav'
p40
(lp41
F2.75
aF0.1556934359273779
ag3
(g7
S'\xec\xfe\xc3\x14Q\t\x8d?'
p42
tp43
Rp44
as.