(dp0
S'kunfav'
p1
(lp2
F1.25
aF0.20808821791950782
acnumpy.core.multiarray
scalar
p3
(cnumpy
dtype
p4
(S'f8'
p5
I0
I1
tp6
Rp7
(I3
S'<'
p8
NNNI-1
I-1
I0
tp9
bS'\x02]ux-\xd8\x90?'
p10
tp11
Rp12
asS'sea'
p13
(lp14
F1.25
aF0.5970888849393576
ag3
(g7
S'\xff\x0c\xc58\xe2Y\xaa?'
p15
tp16
Rp17
asS'val'
p18
(lp19
F1.25
aF0.5274600128868602
ag3
(g7
S'\x04\x99:\t\x7f(\x90?'
p20
tp21
Rp22
asS'gk0'
p23
(lp24
F1.25
aF-0.2721912700347553
ag3
(g7
S'\x16\xba*S\x1e\xbfz?'
p25
tp26
Rp27
asS'chi2'
p28
(lp29
F1.25
aF925.6
aF807.0
asS'unfav'
p30
(lp31
F1.25
aF0.14433511389146456
ag3
(g7
S'\x161\x10O\x81\x8af?'
p32
tp33
Rp34
asS'fav'
p35
(lp36
F1.25
aF0.12331652939751722
ag3
(g7
S'\x0cr,x\xc1\xe2`?'
p37
tp38
Rp39
asS'kfav'
p40
(lp41
F1.25
aF0.13105096164945734
ag3
(g7
S'7a\xa6M\x17\x86t?'
p42
tp43
Rp44
as.