(dp0
S'kunfav'
p1
(lp2
F2.0
aF0.17438671825696453
acnumpy.core.multiarray
scalar
p3
(cnumpy
dtype
p4
(S'f8'
p5
I0
I1
tp6
Rp7
(I3
S'<'
p8
NNNI-1
I-1
I0
tp9
bS'\xd5\x18\x98\xb2x\xe8\x93?'
p10
tp11
Rp12
asS'sea'
p13
(lp14
F2.0
aF0.5763416856302473
ag3
(g7
S'\x10N\xfa[\x97\xf7\xaa?'
p15
tp16
Rp17
asS'val'
p18
(lp19
F2.0
aF0.5064797116506637
ag3
(g7
S'\xd1\xb87\x87\xca\x8e\x91?'
p20
tp21
Rp22
asS'gk0'
p23
(lp24
F2.0
aF-0.271758373930439
ag3
(g7
S'\x8d\xda\xa3/\xc3!{?'
p25
tp26
Rp27
asS'chi2'
p28
(lp29
F2.0
aF855.2900000000002
aF728.0
asS'unfav'
p30
(lp31
F2.0
aF0.15084335936562288
ag3
(g7
S'\x92 \xefiPwp?'
p32
tp33
Rp34
asS'fav'
p35
(lp36
F2.0
aF0.12632183341842446
ag3
(g7
S'\xb6R$\xd8\xf6\x97c?'
p37
tp38
Rp39
asS'kfav'
p40
(lp41
F2.0
aF0.1351392187142899
ag3
(g7
S'm\x8c@z\xbao|?'
p42
tp43
Rp44
as.