(dp0
S'kunfav'
p1
(lp2
F1.5
aF0.12417921291830888
acnumpy.core.multiarray
scalar
p3
(cnumpy
dtype
p4
(S'f8'
p5
I0
I1
tp6
Rp7
(I3
S'<'
p8
NNNI-1
I-1
I0
tp9
bS'\xf9D\xd3a8V\x85?'
p10
tp11
Rp12
asS'sea'
p13
(lp14
F1.5
aF0.35001283571176295
ag3
(g7
S'\xc2\x7f\xc6\xb2HL\xb5?'
p15
tp16
Rp17
asS'val'
p18
(lp19
F1.5
aF0.3341408816573365
ag3
(g7
S'\xca\xdfX1\xd2\x0c\x9b?'
p20
tp21
Rp22
asS'gk0'
p23
(lp24
F1.5
aF-0.24057622054520916
ag3
(g7
S'`\xc2\xed\xf3\xd8q\x87?'
p25
tp26
Rp27
asS'chi2'
p28
(lp29
F1.5
aF434.96999999999997
aF363.0
asS'unfav'
p30
(lp31
F1.5
aF0.19420674804065957
ag3
(g7
S'\xb8U\rC\x1f#w?'
p32
tp33
Rp34
asS'fav'
p35
(lp36
F1.5
aF0.20667669356470822
ag3
(g7
S'\xfev_\x1e\xcf~r?'
p37
tp38
Rp39
asS'kfav'
p40
(lp41
F1.5
aF0.23063816421657113
ag3
(g7
S'\xf8b\xd4"\xd9U\x81?'
p42
tp43
Rp44
as.