(dp0
S'kunfav'
p1
(lp2
F-2.0
aF0.2281523758283115
acnumpy.core.multiarray
scalar
p3
(cnumpy
dtype
p4
(S'f8'
p5
I0
I1
tp6
Rp7
(I3
S'<'
p8
NNNI-1
I-1
I0
tp9
bS'\x01ZL]N-\xc1?'
p10
tp11
Rp12
asS'sea'
p13
(lp14
F-2.0
aF0.17847614770236825
ag3
(g7
S'\x11+6\xf7\xbec\xc4?'
p15
tp16
Rp17
asS'val'
p18
(lp19
F-2.0
aF0.34484177525635373
ag3
(g7
S'V\xc1\xcc\x87\xfb\x1b\xab?'
p20
tp21
Rp22
asS'gk0'
p23
(lp24
F-2.0
aF-0.22089248960232738
ag3
(g7
S'\x7fA\xb5]\xa0r\x9d?'
p25
tp26
Rp27
asS'chi2'
p28
(lp29
F-2.0
aF86.07
aF85.0
asS'unfav'
p30
(lp31
F-2.0
aF0.22557803584059993
ag3
(g7
S'\xe1\xf0?;@\xb5\x8a?'
p32
tp33
Rp34
asS'fav'
p35
(lp36
F-2.0
aF0.22498214836790836
ag3
(g7
S'\xaaGMdsX\x89?'
p37
tp38
Rp39
asS'kfav'
p40
(lp41
F-2.0
aF0.22448441109943887
ag3
(g7
S'\xc0\xcf+n.>\xbc?'
p42
tp43
Rp44
as.