(dp0
S'kunfav'
p1
(lp2
F2.5
aF0.10916831423758463
acnumpy.core.multiarray
scalar
p3
(cnumpy
dtype
p4
(S'f8'
p5
I0
I1
tp6
Rp7
(I3
S'<'
p8
NNNI-1
I-1
I0
tp9
bS'\xc72b\xd3\xaex\x98?'
p10
tp11
Rp12
asS'sea'
p13
(lp14
F2.5
aF0.5300068630070458
ag3
(g7
S'\xae\xa1\x90H{C\xae?'
p15
tp16
Rp17
asS'val'
p18
(lp19
F2.5
aF0.40722241758560085
ag3
(g7
S'\x17j\xb4\x815\xc2\x92?'
p20
tp21
Rp22
asS'gk0'
p23
(lp24
F2.5
aF-0.2802951669515333
ag3
(g7
S'\x81\xa2\x92\n}\xb5~?'
p25
tp26
Rp27
asS'chi2'
p28
(lp29
F2.5
aF511.81000000000006
aF466.0
asS'unfav'
p30
(lp31
F2.5
aF0.15242646509027935
ag3
(g7
S'f`\x81\xd3\x8b\x9cq?'
p32
tp33
Rp34
asS'fav'
p35
(lp36
F2.5
aF0.153500707732331
ag3
(g7
S'\xf5:\xcc\xab\xc7\xc9i?'
p37
tp38
Rp39
asS'kfav'
p40
(lp41
F2.5
aF0.14200109742553063
ag3
(g7
S'L\xf5\xb5\xaa\x1e\xb3\x83?'
p42
tp43
Rp44
as.