(dp0
S'kunfav'
p1
(lp2
F-2.5
aF0.24364802857499573
acnumpy.core.multiarray
scalar
p3
(cnumpy
dtype
p4
(S'f8'
p5
I0
I1
tp6
Rp7
(I3
S'<'
p8
NNNI-1
I-1
I0
tp9
bS'L|@=\x01\xef\xc0?'
p10
tp11
Rp12
asS'sea'
p13
(lp14
F-2.5
aF0.38955649464876596
ag3
(g7
S'R6\xcc\xf1k\xe7\xcd?'
p15
tp16
Rp17
asS'val'
p18
(lp19
F-2.5
aF0.3646603702518052
ag3
(g7
S'\xfd-\xc9\xe1LP\xb7?'
p20
tp21
Rp22
asS'gk0'
p23
(lp24
F-2.5
aF-0.2649841482419104
ag3
(g7
S'H\xdb\x02\xac\x97\x91\xaf?'
p25
tp26
Rp27
asS'chi2'
p28
(lp29
F-2.5
aF26.689999999999998
aF36.0
asS'unfav'
p30
(lp31
F-2.5
aF0.2207296456160474
ag3
(g7
S'\x07\xa0\xb1\x1d2}\x9b?'
p32
tp33
Rp34
asS'fav'
p35
(lp36
F-2.5
aF0.23816089956330877
ag3
(g7
S'\r\xad%\xa14\xce\x99?'
p37
tp38
Rp39
asS'kfav'
p40
(lp41
F-2.5
aF0.24384710871109794
ag3
(g7
S'R\x19\xf8\xacP\xcc\xc0?'
p42
tp43
Rp44
as.