(dp0
S'kunfav'
p1
(lp2
F3.0
aF0.3120310636367821
acnumpy.core.multiarray
scalar
p3
(cnumpy
dtype
p4
(S'f8'
p5
I0
I1
tp6
Rp7
(I3
S'<'
p8
NNNI-1
I-1
I0
tp9
bS'\x9a\x90\xf5 VM\xbb?'
p10
tp11
Rp12
asS'sea'
p13
(lp14
F3.0
aF0.2794025229928082
ag3
(g7
S'G"\x14#\x9cV\xba?'
p15
tp16
Rp17
asS'val'
p18
(lp19
F3.0
aF0.34997421551413804
ag3
(g7
S'\xd8`Lm\x82U\x9e?'
p20
tp21
Rp22
asS'gk0'
p23
(lp24
F3.0
aF-0.27997609092396647
ag3
(g7
S'\x13l(RWL\x86?'
p25
tp26
Rp27
asS'chi2'
p28
(lp29
F3.0
aF88.75999999999999
aF174.0
asS'unfav'
p30
(lp31
F3.0
aF0.15216069821336253
ag3
(g7
S'\x06\xc8\xf8\xe1\xeb\xf3w?'
p32
tp33
Rp34
asS'fav'
p35
(lp36
F3.0
aF0.17136069381659136
ag3
(g7
S'\xbf\xe2<\x8dF\xe5r?'
p37
tp38
Rp39
asS'kfav'
p40
(lp41
F3.0
aF0.15407737139524177
ag3
(g7
S'W_\x13\x0b\xc1J\x99?'
p42
tp43
Rp44
as.