(dp0
S'kunfav'
p1
(lp2
F1.25
aF0.12435174112874937
acnumpy.core.multiarray
scalar
p3
(cnumpy
dtype
p4
(S'f8'
p5
I0
I1
tp6
Rp7
(I3
S'<'
p8
NNNI-1
I-1
I0
tp9
bS'm\x16\x14\xb8\xe1<\x86?'
p10
tp11
Rp12
asS'sea'
p13
(lp14
F1.25
aF0.35479603955582495
ag3
(g7
S'[\xa6\xc6\xf2\xe5\xba\xb5?'
p15
tp16
Rp17
asS'val'
p18
(lp19
F1.25
aF0.3324643922339456
ag3
(g7
S'\xf4\xb2K\xe5\xe8\xf1\x9a?'
p20
tp21
Rp22
asS'gk0'
p23
(lp24
F1.25
aF-0.24157622952290572
ag3
(g7
S'\xe0_R\xac\x1a\xf0\x87?'
p25
tp26
Rp27
asS'chi2'
p28
(lp29
F1.25
aF434.98
aF363.0
asS'unfav'
p30
(lp31
F1.25
aF0.19424252107234805
ag3
(g7
S'4\xfe\x00\x96U\xcfv?'
p32
tp33
Rp34
asS'fav'
p35
(lp36
F1.25
aF0.2068866832448013
ag3
(g7
S'YS!1g\xbcr?'
p37
tp38
Rp39
asS'kfav'
p40
(lp41
F1.25
aF0.23072259081464505
ag3
(g7
S'\xed\x94z\xea=\x17\x83?'
p42
tp43
Rp44
as.