(dp0
S'kunfav'
p1
(lp2
F2.5
aF0.10292176338782438
acnumpy.core.multiarray
scalar
p3
(cnumpy
dtype
p4
(S'f8'
p5
I0
I1
tp6
Rp7
(I3
S'<'
p8
NNNI-1
I-1
I0
tp9
bS'Z\xad\x03AtT\x90?'
p10
tp11
Rp12
asS'sea'
p13
(lp14
F2.5
aF0.39047454450268926
ag3
(g7
S'Z\x95\xe2\xba\xcb~\xba?'
p15
tp16
Rp17
asS'val'
p18
(lp19
F2.5
aF0.32842730628394395
ag3
(g7
S'\tv"\x0c\xff\xb0\x9b?'
p20
tp21
Rp22
asS'gk0'
p23
(lp24
F2.5
aF-0.24542292490535111
ag3
(g7
S'5\xe0\x8a\xbcQ\x90\x88?'
p25
tp26
Rp27
asS'chi2'
p28
(lp29
F2.5
aF396.07000000000005
aF318.0
asS'unfav'
p30
(lp31
F2.5
aF0.19312294077120576
ag3
(g7
S'.\x94\x9a\xbb\x91\x12w?'
p32
tp33
Rp34
asS'fav'
p35
(lp36
F2.5
aF0.2069938759831648
ag3
(g7
S'P\xf9\xc9\x03e\xa5r?'
p37
tp38
Rp39
asS'kfav'
p40
(lp41
F2.5
aF0.239610831646349
ag3
(g7
S'\n\x9b\xda\xe9\xc4\xdd\x86?'
p42
tp43
Rp44
as.