(dp0
S'kunfav'
p1
(lp2
F-1.25
aF0.1890845253949754
acnumpy.core.multiarray
scalar
p3
(cnumpy
dtype
p4
(S'f8'
p5
I0
I1
tp6
Rp7
(I3
S'<'
p8
NNNI-1
I-1
I0
tp9
bS'\xf0\xcf\x06\x89b\x17\xb5?'
p10
tp11
Rp12
asS'sea'
p13
(lp14
F-1.25
aF0.3492636302789307
ag3
(g7
S'\xaf\xd05\xb2@\x1f\xc0?'
p15
tp16
Rp17
asS'val'
p18
(lp19
F-1.25
aF0.3476098977358657
ag3
(g7
S'\x9a\xac\x7f\x98\xa6\x84\x9c?'
p20
tp21
Rp22
asS'gk0'
p23
(lp24
F-1.25
aF-0.23154692884348926
ag3
(g7
S'W3\xf1i\xf7R\x87?'
p25
tp26
Rp27
asS'chi2'
p28
(lp29
F-1.25
aF379.33
aF244.0
asS'unfav'
p30
(lp31
F-1.25
aF0.19352729446573164
ag3
(g7
S'\xa4#S\x12\x95\x96w?'
p32
tp33
Rp34
asS'fav'
p35
(lp36
F-1.25
aF0.20242272871156894
ag3
(g7
S'.\x10\x8b\xa26Rs?'
p37
tp38
Rp39
asS'kfav'
p40
(lp41
F-1.25
aF0.16527330480298777
ag3
(g7
S'\xad\x91h\x90\xde\xec\x95?'
p42
tp43
Rp44
as.