(dp0
S'kunfav'
p1
(lp2
F1.75
aF0.20243805986126778
acnumpy.core.multiarray
scalar
p3
(cnumpy
dtype
p4
(S'f8'
p5
I0
I1
tp6
Rp7
(I3
S'<'
p8
NNNI-1
I-1
I0
tp9
bS'\xbb\x1d2\t\x1d<\x94?'
p10
tp11
Rp12
asS'sea'
p13
(lp14
F1.75
aF0.6024910126478017
ag3
(g7
S'\x8b9 R\xf1\xfb\xab?'
p15
tp16
Rp17
asS'val'
p18
(lp19
F1.75
aF0.5279342512624805
ag3
(g7
S'\xe0\xa5\x02\x02\x84\x90\x8f?'
p20
tp21
Rp22
asS'gk0'
p23
(lp24
F1.75
aF-0.2721312289286342
ag3
(g7
S'\xaf\x7f\xac\x04\xd5\x1c{?'
p25
tp26
Rp27
asS'chi2'
p28
(lp29
F1.75
aF913.7599999999999
aF788.0
asS'unfav'
p30
(lp31
F1.75
aF0.14543207008261425
ag3
(g7
S'\xb2\xaa\xd1\x9eP(h?'
p32
tp33
Rp34
asS'fav'
p35
(lp36
F1.75
aF0.12295690490024327
ag3
(g7
S'\x10w\x9e\xb4\x96/`?'
p37
tp38
Rp39
asS'kfav'
p40
(lp41
F1.75
aF0.1284633807722187
ag3
(g7
S'\x1c\x16\xa0\x90\x90\xcex?'
p42
tp43
Rp44
as.