(dp0
S'kunfav'
p1
(lp2
F-1.75
aF0.1923713479273175
acnumpy.core.multiarray
scalar
p3
(cnumpy
dtype
p4
(S'f8'
p5
I0
I1
tp6
Rp7
(I3
S'<'
p8
NNNI-1
I-1
I0
tp9
bS'\xf7\xf0g\xe1\xf7\xf8\xc0?'
p10
tp11
Rp12
asS'sea'
p13
(lp14
F-1.75
aF0.14174915718534625
ag3
(g7
S')\x1c8wO\xbc\xbf?'
p15
tp16
Rp17
asS'val'
p18
(lp19
F-1.75
aF0.3473231763768225
ag3
(g7
S' \xec\xd8v(V\xa4?'
p20
tp21
Rp22
asS'gk0'
p23
(lp24
F-1.75
aF-0.22058354320928808
ag3
(g7
S'\xb1E\x1e\x1b\xfd\x87\x92?'
p25
tp26
Rp27
asS'chi2'
p28
(lp29
F-1.75
aF145.46
aF131.0
asS'unfav'
p30
(lp31
F-1.75
aF0.21259449022482813
ag3
(g7
S'\xadF\xed\xd8\xc6\xa8\x82?'
p32
tp33
Rp34
asS'fav'
p35
(lp36
F-1.75
aF0.21781621232593254
ag3
(g7
S'k\x04J\x19\xee\xfd\x80?'
p37
tp38
Rp39
asS'kfav'
p40
(lp41
F-1.75
aF0.1525986957743386
ag3
(g7
S'\xef=\xe1\x94\xa4\xef\xac?'
p42
tp43
Rp44
as.