(dp0
S'kunfav'
p1
(lp2
F-0.5
aF0.1201004874957244
acnumpy.core.multiarray
scalar
p3
(cnumpy
dtype
p4
(S'f8'
p5
I0
I1
tp6
Rp7
(I3
S'<'
p8
NNNI-1
I-1
I0
tp9
bS'\xab\xb9Y\xffS\xae\x94?'
p10
tp11
Rp12
asS'sea'
p13
(lp14
F-0.5
aF0.4931910043493317
ag3
(g7
S'\x01\xe9\xdb\xd4\x11Q\xb4?'
p15
tp16
Rp17
asS'val'
p18
(lp19
F-0.5
aF0.3107001924437556
ag3
(g7
S'1\xea\x14\xb1\x95h\x93?'
p20
tp21
Rp22
asS'gk0'
p23
(lp24
F-0.5
aF-0.26703511452145456
ag3
(g7
S'.\x1e0<t\xdf}?'
p25
tp26
Rp27
asS'chi2'
p28
(lp29
F-0.5
aF833.7
aF463.0
asS'unfav'
p30
(lp31
F-0.5
aF0.18772703980819236
ag3
(g7
S'\x86\xc8_\xc6\xe1Sr?'
p32
tp33
Rp34
asS'fav'
p35
(lp36
F-0.5
aF0.19053864458940112
ag3
(g7
S'\x7f\x17vZ\xe0]k?'
p37
tp38
Rp39
asS'kfav'
p40
(lp41
F-0.5
aF0.1943527671762884
ag3
(g7
S'm^.\xbb3\x14\x85?'
p42
tp43
Rp44
as.