(dp0
S'kunfav'
p1
(lp2
F3.25
aF0.2534022081393119
acnumpy.core.multiarray
scalar
p3
(cnumpy
dtype
p4
(S'f8'
p5
I0
I1
tp6
Rp7
(I3
S'<'
p8
NNNI-1
I-1
I0
tp9
bS'F\xfa\xe1\xbb"\xd1\xc0?'
p10
tp11
Rp12
asS'sea'
p13
(lp14
F3.25
aF0.27887047611808347
ag3
(g7
S'\xf9\xc3\x97\x00$6\xc8?'
p15
tp16
Rp17
asS'val'
p18
(lp19
F3.25
aF0.31752207381990893
ag3
(g7
S'o>Q^\x91.\xa9?'
p20
tp21
Rp22
asS'gk0'
p23
(lp24
F3.25
aF-0.3035688178069382
ag3
(g7
S'^\xe8\xcd|\xe3Y\x92?'
p25
tp26
Rp27
asS'chi2'
p28
(lp29
F3.25
aF29.57
aF88.0
asS'unfav'
p30
(lp31
F3.25
aF0.15928690425501002
ag3
(g7
S'v\xdd\xe7;\xd1C\x85?'
p32
tp33
Rp34
asS'fav'
p35
(lp36
F3.25
aF0.18108107343034605
ag3
(g7
S'9u/\xa0(\xb5\x7f?'
p37
tp38
Rp39
asS'kfav'
p40
(lp41
F3.25
aF0.2474384013996463
ag3
(g7
S'\x1e#i\xc2\xe8\xda\xc0?'
p42
tp43
Rp44
as.