(dp0
S'kunfav'
p1
(lp2
F1.5
aF0.20259660220974046
acnumpy.core.multiarray
scalar
p3
(cnumpy
dtype
p4
(S'f8'
p5
I0
I1
tp6
Rp7
(I3
S'<'
p8
NNNI-1
I-1
I0
tp9
bS'\xf0thS\xd5\xe7\x90?'
p10
tp11
Rp12
asS'sea'
p13
(lp14
F1.5
aF0.5986312026895435
ag3
(g7
S'1\xef\xf9\xbe6\xa5\xaa?'
p15
tp16
Rp17
asS'val'
p18
(lp19
F1.5
aF0.5280388770130874
ag3
(g7
S'@\x92\x10\xf4o\xa8\x8f?'
p20
tp21
Rp22
asS'gk0'
p23
(lp24
F1.5
aF-0.2725021681049925
ag3
(g7
S'\xa8\x1cb2aiy?'
p25
tp26
Rp27
asS'chi2'
p28
(lp29
F1.5
aF924.9399999999999
aF805.0
asS'unfav'
p30
(lp31
F1.5
aF0.14407128884430143
ag3
(g7
S'\xc6\xfb\x98\x96\xda7g?'
p32
tp33
Rp34
asS'fav'
p35
(lp36
F1.5
aF0.12329624281087306
ag3
(g7
S' \x10$\x07\xd6\xbc`?'
p37
tp38
Rp39
asS'kfav'
p40
(lp41
F1.5
aF0.13143516553413503
ag3
(g7
S'ob\x08klCt?'
p42
tp43
Rp44
as.