(dp0
S'kunfav'
p1
(lp2
F3.25
aF0.2394578305443114
acnumpy.core.multiarray
scalar
p3
(cnumpy
dtype
p4
(S'f8'
p5
I0
I1
tp6
Rp7
(I3
S'<'
p8
NNNI-1
I-1
I0
tp9
bS'\xc0\xcb\x86\x8c\xfd,\xc0?'
p10
tp11
Rp12
asS'sea'
p13
(lp14
F3.25
aF0.2202482951279434
ag3
(g7
S'\xaf\xd7\xa5\xf2P\xd0\xb6?'
p15
tp16
Rp17
asS'val'
p18
(lp19
F3.25
aF0.29622264814900356
ag3
(g7
S'R\xb7\xd8)\x02\xdd\x9c?'
p20
tp21
Rp22
asS'gk0'
p23
(lp24
F3.25
aF-0.2774299801093068
ag3
(g7
S's\xa1\xc4!\x01I\x8a?'
p25
tp26
Rp27
asS'chi2'
p28
(lp29
F3.25
aF226.68999999999997
aF157.0
asS'unfav'
p30
(lp31
F3.25
aF0.20625744513640418
ag3
(g7
S'\xa3\xdc/\xa8M\x16w?'
p32
tp33
Rp34
asS'fav'
p35
(lp36
F3.25
aF0.21247799283618565
ag3
(g7
S'9Y(\x92\x1eys?'
p37
tp38
Rp39
asS'kfav'
p40
(lp41
F3.25
aF0.23915312638273106
ag3
(g7
S'\xf6\xac\x0c\xc1A,\xc1?'
p42
tp43
Rp44
as.