(dp0
S'kunfav'
p1
(lp2
F1.75
aF0.1246536846576328
acnumpy.core.multiarray
scalar
p3
(cnumpy
dtype
p4
(S'f8'
p5
I0
I1
tp6
Rp7
(I3
S'<'
p8
NNNI-1
I-1
I0
tp9
bS'\x0e\xd2>\xe0\x86|\x86?'
p10
tp11
Rp12
asS'sea'
p13
(lp14
F1.75
aF0.34877671802525056
ag3
(g7
S'+"\xbc\xf8\x10\xa5\xb5?'
p15
tp16
Rp17
asS'val'
p18
(lp19
F1.75
aF0.33603786884613607
ag3
(g7
S'\xb2,D\x85 ?\x9a?'
p20
tp21
Rp22
asS'gk0'
p23
(lp24
F1.75
aF-0.24149126717683317
ag3
(g7
S'\x05\xd9\xe2\x1d\xb2\xd3\x86?'
p25
tp26
Rp27
asS'chi2'
p28
(lp29
F1.75
aF435.0
aF363.0
asS'unfav'
p30
(lp31
F1.75
aF0.1938956410230322
ag3
(g7
S'a\xb0\xda\x12\x80\xe9u?'
p32
tp33
Rp34
asS'fav'
p35
(lp36
F1.75
aF0.2064955884056568
ag3
(g7
S'I\xdbkn\x0f)r?'
p37
tp38
Rp39
asS'kfav'
p40
(lp41
F1.75
aF0.23039192045656465
ag3
(g7
S'\xc0!\xd2@\xf8m\x81?'
p42
tp43
Rp44
as.