(dp0
S'kunfav'
p1
(lp2
F2.75
aF0.15811010732106856
acnumpy.core.multiarray
scalar
p3
(cnumpy
dtype
p4
(S'f8'
p5
I0
I1
tp6
Rp7
(I3
S'<'
p8
NNNI-1
I-1
I0
tp9
bS'\x0fI\xf7\xd6\xa8\x1b\xa2?'
p10
tp11
Rp12
asS'sea'
p13
(lp14
F2.75
aF0.2642197155416903
ag3
(g7
S'\x9e(\r/8{\xb7?'
p15
tp16
Rp17
asS'val'
p18
(lp19
F2.75
aF0.3276437457259108
ag3
(g7
S'b\xa0\xa1\xaf6\xc9\x9b?'
p20
tp21
Rp22
asS'gk0'
p23
(lp24
F2.75
aF-0.24367885956330332
ag3
(g7
S'\x06\xe1\xbb\xc5g\xcb\x88?'
p25
tp26
Rp27
asS'chi2'
p28
(lp29
F2.75
aF363.16999999999996
aF280.0
asS'unfav'
p30
(lp31
F2.75
aF0.1978766892989252
ag3
(g7
S'\xad)\xc9tl\xcfw?'
p32
tp33
Rp34
asS'fav'
p35
(lp36
F2.75
aF0.2085924229079547
ag3
(g7
S'\\\x0b&Qr\x0es?'
p37
tp38
Rp39
asS'kfav'
p40
(lp41
F2.75
aF0.25471837715372747
ag3
(g7
S'>\n\xd6\x19\x16l\x8a?'
p42
tp43
Rp44
as.