(dp0
S'kunfav'
p1
(lp2
F3.5
aF0.25500063099176085
acnumpy.core.multiarray
scalar
p3
(cnumpy
dtype
p4
(S'f8'
p5
I0
I1
tp6
Rp7
(I3
S'<'
p8
NNNI-1
I-1
I0
tp9
bS'\xdf|\xe2\xa0\x0b\x86\xc0?'
p10
tp11
Rp12
asS'sea'
p13
(lp14
F3.5
aF0.2906346265706379
ag3
(g7
S'\x7f\x0f\x8c\xa7\xfbI\xc2?'
p15
tp16
Rp17
asS'val'
p18
(lp19
F3.5
aF0.2387318229994146
ag3
(g7
S'5\xa1^\xc3\xee\xac\xa1?'
p20
tp21
Rp22
asS'gk0'
p23
(lp24
F3.5
aF-0.32296140131752304
ag3
(g7
S',\xbb`\xbfi\\\x90?'
p25
tp26
Rp27
asS'chi2'
p28
(lp29
F3.5
aF148.54000000000002
aF97.0
asS'unfav'
p30
(lp31
F3.5
aF0.21304693525346513
ag3
(g7
S'9\xd9WY\xb1\xeb~?'
p32
tp33
Rp34
asS'fav'
p35
(lp36
F3.5
aF0.22559714329240455
ag3
(g7
S'\xf6\xd1\xf6xX9z?'
p37
tp38
Rp39
asS'kfav'
p40
(lp41
F3.5
aF0.2384110235479749
ag3
(g7
S'\x96\xe5\x8f\xdeL\x0f\xc1?'
p42
tp43
Rp44
as.