(dp0
S'kunfav'
p1
(lp2
F2.25
aF0.12602152536091626
acnumpy.core.multiarray
scalar
p3
(cnumpy
dtype
p4
(S'f8'
p5
I0
I1
tp6
Rp7
(I3
S'<'
p8
NNNI-1
I-1
I0
tp9
bS'W \xdb(\xfa\x0b\x95?'
p10
tp11
Rp12
asS'sea'
p13
(lp14
F2.25
aF0.5513604928738502
ag3
(g7
S'\x9b\xcd$\xf7\x89q\xad?'
p15
tp16
Rp17
asS'val'
p18
(lp19
F2.25
aF0.43482612656414044
ag3
(g7
S'$\xe0\xb1\xfds\xd0\x92?'
p20
tp21
Rp22
asS'gk0'
p23
(lp24
F2.25
aF-0.27225986563842564
ag3
(g7
S'\xb1\xa6\xaf\xca\x9e\xf9|?'
p25
tp26
Rp27
asS'chi2'
p28
(lp29
F2.25
aF643.24
aF604.0
asS'unfav'
p30
(lp31
F2.25
aF0.15670223596618552
ag3
(g7
S'\xf2\xc7R\x80x\xc0q?'
p32
tp33
Rp34
asS'fav'
p35
(lp36
F2.25
aF0.14261356686807583
ag3
(g7
S'\xf7\xfdh\xa7\xc1\xcdh?'
p37
tp38
Rp39
asS'kfav'
p40
(lp41
F2.25
aF0.13764362722579399
ag3
(g7
S'ZG\xfb\xafwo\x81?'
p42
tp43
Rp44
as.