(dp0
S'kunfav'
p1
(lp2
F3.0
aF0.3095974604775438
acnumpy.core.multiarray
scalar
p3
(cnumpy
dtype
p4
(S'f8'
p5
I0
I1
tp6
Rp7
(I3
S'<'
p8
NNNI-1
I-1
I0
tp9
bS'\xba\x15\x0e>1\xe5\xb7?'
p10
tp11
Rp12
asS'sea'
p13
(lp14
F3.0
aF0.218075446006735
ag3
(g7
S'z\x12\xeb}&\xf1\xb4?'
p15
tp16
Rp17
asS'val'
p18
(lp19
F3.0
aF0.3211521136425187
ag3
(g7
S'\xb0\xae\xbfN:\xb7\x9a?'
p20
tp21
Rp22
asS'gk0'
p23
(lp24
F3.0
aF-0.2543717678480617
ag3
(g7
S'B\x19\xc5\x14\x82\x17\x88?'
p25
tp26
Rp27
asS'chi2'
p28
(lp29
F3.0
aF280.24000000000007
aF212.0
asS'unfav'
p30
(lp31
F3.0
aF0.20065634828839105
ag3
(g7
S'\xf2\xd33\x97D@w?'
p32
tp33
Rp34
asS'fav'
p35
(lp36
F3.0
aF0.20956745153100104
ag3
(g7
S'@\xdbBI2\x13r?'
p37
tp38
Rp39
asS'kfav'
p40
(lp41
F3.0
aF0.27731328680019757
ag3
(g7
S'\xb6~u\x89y\x83\x8f?'
p42
tp43
Rp44
as.