(dp0
S'kunfav'
p1
(lp2
F-1.0
aF0.17415473665447936
acnumpy.core.multiarray
scalar
p3
(cnumpy
dtype
p4
(S'f8'
p5
I0
I1
tp6
Rp7
(I3
S'<'
p8
NNNI-1
I-1
I0
tp9
bS'\xaf\xb0I s#\xaa?'
p10
tp11
Rp12
asS'sea'
p13
(lp14
F-1.0
aF0.47053954745854165
ag3
(g7
S'\x9bH\x98bQ\xde\xbf?'
p15
tp16
Rp17
asS'val'
p18
(lp19
F-1.0
aF0.2719453229985237
ag3
(g7
S'p9\xcd\x8bI\x04\x97?'
p20
tp21
Rp22
asS'gk0'
p23
(lp24
F-1.0
aF-0.251460900741305
ag3
(g7
S'=u\x84\xe0\xb1\xe9\x82?'
p25
tp26
Rp27
asS'chi2'
p28
(lp29
F-1.0
aF559.3
aF315.0
asS'unfav'
p30
(lp31
F-1.0
aF0.19323103665478422
ag3
(g7
S'\x94\x86L\x9c2\x9bu?'
p32
tp33
Rp34
asS'fav'
p35
(lp36
F-1.0
aF0.2054043779350933
ag3
(g7
S'7\xb0\x01\xa8{\xbaq?'
p37
tp38
Rp39
asS'kfav'
p40
(lp41
F-1.0
aF0.19478595749907318
ag3
(g7
S'C\xb8\x8b\x0b:\x9c\x91?'
p42
tp43
Rp44
as.