(dp0
S'kunfav'
p1
(lp2
F3.5
aF0.24872537462173244
acnumpy.core.multiarray
scalar
p3
(cnumpy
dtype
p4
(S'f8'
p5
I0
I1
tp6
Rp7
(I3
S'<'
p8
NNNI-1
I-1
I0
tp9
bS'\xd5\xe4\x85Nu\xb9\xc0?'
p10
tp11
Rp12
asS'sea'
p13
(lp14
F3.5
aF0.44535168605306363
ag3
(g7
S'\xa8\x12\x98#M\x99\xcd?'
p15
tp16
Rp17
asS'val'
p18
(lp19
F3.5
aF0.2704428860090244
ag3
(g7
S'\xe7\x89?\xdf\x84;\xb3?'
p20
tp21
Rp22
asS'gk0'
p23
(lp24
F3.5
aF-0.34080407877123475
ag3
(g7
S'K\xe4,\xcdfi\x9d?'
p25
tp26
Rp27
asS'chi2'
p28
(lp29
F3.5
aF7.86
aF40.0
asS'unfav'
p30
(lp31
F3.5
aF0.16126336572867195
ag3
(g7
S';\xd7\xe3\x0c\xca9\x92?'
p32
tp33
Rp34
asS'fav'
p35
(lp36
F3.5
aF0.18804261588108812
ag3
(g7
S"\xc3\xb5\xc2'\xe4P\x8f?"
p37
tp38
Rp39
asS'kfav'
p40
(lp41
F3.5
aF0.24423982593831126
ag3
(g7
S';\xbb\x17\x81%\xf7\xc0?'
p42
tp43
Rp44
as.