(dp0
S'kunfav'
p1
(lp2
F2.25
aF0.11340227075911023
acnumpy.core.multiarray
scalar
p3
(cnumpy
dtype
p4
(S'f8'
p5
I0
I1
tp6
Rp7
(I3
S'<'
p8
NNNI-1
I-1
I0
tp9
bS'K \x8fRG)\x87?'
p10
tp11
Rp12
asS'sea'
p13
(lp14
F2.25
aF0.37923877766550806
ag3
(g7
S'\xb7\xa2\x174\x82\xde\xb6?'
p15
tp16
Rp17
asS'val'
p18
(lp19
F2.25
aF0.33219980636824054
ag3
(g7
S'\x9f\x96\xcd\x0c\xdd=\x9b?'
p20
tp21
Rp22
asS'gk0'
p23
(lp24
F2.25
aF-0.24453015895156605
ag3
(g7
S"\xdd'+N\xf5\xfc\x86?"
p25
tp26
Rp27
asS'chi2'
p28
(lp29
F2.25
aF427.78
aF352.0
asS'unfav'
p30
(lp31
F2.25
aF0.1934416883356147
ag3
(g7
S'GUe\xd5\xd1iv?'
p32
tp33
Rp34
asS'fav'
p35
(lp36
F2.25
aF0.20641238493127173
ag3
(g7
S'[[\x81<\x1fpr?'
p37
tp38
Rp39
asS'kfav'
p40
(lp41
F2.25
aF0.23146017363044696
ag3
(g7
S'c\x87ZM\x17\xb1\x84?'
p42
tp43
Rp44
as.