(dp0
S'kunfav'
p1
(lp2
F2.0
aF0.12390490726941275
acnumpy.core.multiarray
scalar
p3
(cnumpy
dtype
p4
(S'f8'
p5
I0
I1
tp6
Rp7
(I3
S'<'
p8
NNNI-1
I-1
I0
tp9
bS'm\x88\xb9\x82\xcb\xbc\x84?'
p10
tp11
Rp12
asS'sea'
p13
(lp14
F2.0
aF0.35127007428896045
ag3
(g7
S'\xfe 5v\x1eM\xb3?'
p15
tp16
Rp17
asS'val'
p18
(lp19
F2.0
aF0.334357481716412
ag3
(g7
S'V\xf1rz\xb1\x02\x9a?'
p20
tp21
Rp22
asS'gk0'
p23
(lp24
F2.0
aF-0.24162941957557332
ag3
(g7
S't\xd5x[/\x9b\x85?'
p25
tp26
Rp27
asS'chi2'
p28
(lp29
F2.0
aF434.95000000000005
aF363.0
asS'unfav'
p30
(lp31
F2.0
aF0.19399743425053056
ag3
(g7
S'\xf1\x15\xc7q\xa5\x12u?'
p32
tp33
Rp34
asS'fav'
p35
(lp36
F2.0
aF0.20659699161502101
ag3
(g7
S'\xc2\x88|\xdc\xd8Vr?'
p37
tp38
Rp39
asS'kfav'
p40
(lp41
F2.0
aF0.23074892407707215
ag3
(g7
S'O\xb9\x8c\xe6\xf9\x10\x81?'
p42
tp43
Rp44
as.