(dp0
S'kunfav'
p1
(lp2
F-1.5
aF0.14756843139875342
acnumpy.core.multiarray
scalar
p3
(cnumpy
dtype
p4
(S'f8'
p5
I0
I1
tp6
Rp7
(I3
S'<'
p8
NNNI-1
I-1
I0
tp9
bS'\xbap2q\xa5\x19\xba?'
p10
tp11
Rp12
asS'sea'
p13
(lp14
F-1.5
aF0.23016609097316554
ag3
(g7
S'hPn\xe5Z\xac\xb9?'
p15
tp16
Rp17
asS'val'
p18
(lp19
F-1.5
aF0.3504559511112862
ag3
(g7
S'\xa3\x0c%\xfe\x16\xc2\xa0?'
p20
tp21
Rp22
asS'gk0'
p23
(lp24
F-1.5
aF-0.26018765297983815
ag3
(g7
S'\x11\n\xed\xa5\x97A\x8b?'
p25
tp26
Rp27
asS'chi2'
p28
(lp29
F-1.5
aF253.99000000000007
aF173.0
asS'unfav'
p30
(lp31
F-1.5
aF0.19557751728367598
ag3
(g7
S'\xf3\xa5eM\xb1\x9b{?'
p32
tp33
Rp34
asS'fav'
p35
(lp36
F-1.5
aF0.20461094693219445
ag3
(g7
S'\x05S\xcaM\xf2\xb0z?'
p37
tp38
Rp39
asS'kfav'
p40
(lp41
F-1.5
aF0.13782465557793874
ag3
(g7
S'\x7fy\xb3}uC\x9c?'
p42
tp43
Rp44
as.