(dp0
S'kunfav'
p1
(lp2
F-2.25
aF0.2450971968959425
acnumpy.core.multiarray
scalar
p3
(cnumpy
dtype
p4
(S'f8'
p5
I0
I1
tp6
Rp7
(I3
S'<'
p8
NNNI-1
I-1
I0
tp9
bS'\xa9\x15\x15:\r\xd0\xc0?'
p10
tp11
Rp12
asS'sea'
p13
(lp14
F-2.25
aF0.3083862171323961
ag3
(g7
S'G\xd5L\xd1\rR\xcb?'
p15
tp16
Rp17
asS'val'
p18
(lp19
F-2.25
aF0.3173285073593517
ag3
(g7
S'D\xe1q\x0e\x80\xef\xb0?'
p20
tp21
Rp22
asS'gk0'
p23
(lp24
F-2.25
aF-0.18736379704259065
ag3
(g7
S'\xb6\x911\xefm4\xa4?'
p25
tp26
Rp27
asS'chi2'
p28
(lp29
F-2.25
aF64.36
aF60.0
asS'unfav'
p30
(lp31
F-2.25
aF0.2477450546581162
ag3
(g7
S'\xfd\xd9\xe3\xfa\x17\xe3\x91?'
p32
tp33
Rp34
asS'fav'
p35
(lp36
F-2.25
aF0.2466345341586076
ag3
(g7
S':N\x87\x8dHM\x90?'
p37
tp38
Rp39
asS'kfav'
p40
(lp41
F-2.25
aF0.2496115690258773
ag3
(g7
S'\xda\xe1Er\x1c\xf4\xc0?'
p42
tp43
Rp44
as.